; ModuleID = '58/1160.c'
source_filename = "58/1160.c"
target datalayout = "e-m:e-p270:32:32-p271:32:32-p272:64:64-i64:64-f80:128-n8:16:32:64-S128"
target triple = "x86_64-pc-linux-gnu"

@.str = private unnamed_addr constant [3 x i8] c"%d\00", align 1
@.str.1 = private unnamed_addr constant [3 x i8] c"1\0A\00", align 1
@.str.2 = private unnamed_addr constant [3 x i8] c"0\0A\00", align 1

; Function Attrs: noinline nounwind uwtable
define dso_local i32 @main() #0 {
  %1 = alloca i32, align 4
  %2 = alloca i32, align 4
  %3 = alloca i32, align 4
  %4 = alloca i32, align 4
  %5 = alloca i32, align 4
  %6 = alloca i32, align 4
  %7 = alloca [100 x i8], align 16
  store i32 0, i32* %1, align 4
  %8 = call i32 (i8*, ...) @__isoc99_scanf(i8* getelementptr inbounds ([3 x i8], [3 x i8]* @.str, i64 0, i64 0), i32* %2)
  %9 = call i32 @getchar()
  store i32 0, i32* %4, align 4
  br label %10

10:                                               ; preds = %122, %0
  %11 = load i32, i32* %4, align 4
  %12 = load i32, i32* %2, align 4
  %13 = icmp slt i32 %11, %12
  br i1 %13, label %14, label %125

14:                                               ; preds = %10
  %15 = getelementptr inbounds [100 x i8], [100 x i8]* %7, i64 0, i64 0
  %16 = call i32 (i8*, ...) bitcast (i32 (...)* @gets to i32 (i8*, ...)*)(i8* %15)
  %17 = getelementptr inbounds [100 x i8], [100 x i8]* %7, i64 0, i64 0
  %18 = call i64 @strlen(i8* %17) #3
  %19 = trunc i64 %18 to i32
  store i32 %19, i32* %3, align 4
  store i32 1, i32* %6, align 4
  %20 = getelementptr inbounds [100 x i8], [100 x i8]* %7, i64 0, i64 0
  %21 = load i8, i8* %20, align 16
  %22 = sext i8 %21 to i32
  %23 = icmp sge i32 %22, 65
  br i1 %23, label %24, label %29

24:                                               ; preds = %14
  %25 = getelementptr inbounds [100 x i8], [100 x i8]* %7, i64 0, i64 0
  %26 = load i8, i8* %25, align 16
  %27 = sext i8 %26 to i32
  %28 = icmp sle i32 %27, 90
  br i1 %28, label %44, label %29

29:                                               ; preds = %24, %14
  %30 = getelementptr inbounds [100 x i8], [100 x i8]* %7, i64 0, i64 0
  %31 = load i8, i8* %30, align 16
  %32 = sext i8 %31 to i32
  %33 = icmp sge i32 %32, 97
  br i1 %33, label %34, label %39

34:                                               ; preds = %29
  %35 = getelementptr inbounds [100 x i8], [100 x i8]* %7, i64 0, i64 0
  %36 = load i8, i8* %35, align 16
  %37 = sext i8 %36 to i32
  %38 = icmp sle i32 %37, 122
  br i1 %38, label %44, label %39

39:                                               ; preds = %34, %29
  %40 = getelementptr inbounds [100 x i8], [100 x i8]* %7, i64 0, i64 0
  %41 = load i8, i8* %40, align 16
  %42 = sext i8 %41 to i32
  %43 = icmp eq i32 %42, 95
  br i1 %43, label %44, label %47

44:                                               ; preds = %39, %34, %24
  %45 = load i32, i32* %6, align 4
  %46 = mul nsw i32 %45, 1
  store i32 %46, i32* %6, align 4
  br label %50

47:                                               ; preds = %39
  %48 = load i32, i32* %6, align 4
  %49 = mul nsw i32 %48, 0
  store i32 %49, i32* %6, align 4
  br label %50

50:                                               ; preds = %47, %44
  store i32 1, i32* %5, align 4
  br label %51

51:                                               ; preds = %111, %50
  %52 = load i32, i32* %5, align 4
  %53 = load i32, i32* %3, align 4
  %54 = icmp slt i32 %52, %53
  br i1 %54, label %55, label %114

55:                                               ; preds = %51
  %56 = load i32, i32* %5, align 4
  %57 = sext i32 %56 to i64
  %58 = getelementptr inbounds [100 x i8], [100 x i8]* %7, i64 0, i64 %57
  %59 = load i8, i8* %58, align 1
  %60 = sext i8 %59 to i32
  %61 = icmp sge i32 %60, 65
  br i1 %61, label %62, label %69

62:                                               ; preds = %55
  %63 = load i32, i32* %5, align 4
  %64 = sext i32 %63 to i64
  %65 = getelementptr inbounds [100 x i8], [100 x i8]* %7, i64 0, i64 %64
  %66 = load i8, i8* %65, align 1
  %67 = sext i8 %66 to i32
  %68 = icmp sle i32 %67, 90
  br i1 %68, label %104, label %69

69:                                               ; preds = %62, %55
  %70 = load i32, i32* %5, align 4
  %71 = sext i32 %70 to i64
  %72 = getelementptr inbounds [100 x i8], [100 x i8]* %7, i64 0, i64 %71
  %73 = load i8, i8* %72, align 1
  %74 = sext i8 %73 to i32
  %75 = icmp sge i32 %74, 97
  br i1 %75, label %76, label %83

76:                                               ; preds = %69
  %77 = load i32, i32* %5, align 4
  %78 = sext i32 %77 to i64
  %79 = getelementptr inbounds [100 x i8], [100 x i8]* %7, i64 0, i64 %78
  %80 = load i8, i8* %79, align 1
  %81 = sext i8 %80 to i32
  %82 = icmp sle i32 %81, 122
  br i1 %82, label %104, label %83

83:                                               ; preds = %76, %69
  %84 = load i32, i32* %5, align 4
  %85 = sext i32 %84 to i64
  %86 = getelementptr inbounds [100 x i8], [100 x i8]* %7, i64 0, i64 %85
  %87 = load i8, i8* %86, align 1
  %88 = sext i8 %87 to i32
  %89 = icmp eq i32 %88, 95
  br i1 %89, label %104, label %90

90:                                               ; preds = %83
  %91 = load i32, i32* %5, align 4
  %92 = sext i32 %91 to i64
  %93 = getelementptr inbounds [100 x i8], [100 x i8]* %7, i64 0, i64 %92
  %94 = load i8, i8* %93, align 1
  %95 = sext i8 %94 to i32
  %96 = icmp sge i32 %95, 48
  br i1 %96, label %97, label %107

97:                                               ; preds = %90
  %98 = load i32, i32* %5, align 4
  %99 = sext i32 %98 to i64
  %100 = getelementptr inbounds [100 x i8], [100 x i8]* %7, i64 0, i64 %99
  %101 = load i8, i8* %100, align 1
  %102 = sext i8 %101 to i32
  %103 = icmp sle i32 %102, 57
  br i1 %103, label %104, label %107

104:                                              ; preds = %97, %83, %76, %62
  %105 = load i32, i32* %6, align 4
  %106 = mul nsw i32 %105, 1
  store i32 %106, i32* %6, align 4
  br label %110

107:                                              ; preds = %97, %90
  %108 = load i32, i32* %6, align 4
  %109 = mul nsw i32 %108, 0
  store i32 %109, i32* %6, align 4
  br label %114

110:                                              ; preds = %104
  br label %111

111:                                              ; preds = %110
  %112 = load i32, i32* %5, align 4
  %113 = add nsw i32 %112, 1
  store i32 %113, i32* %5, align 4
  br label %51

114:                                              ; preds = %107, %51
  %115 = load i32, i32* %6, align 4
  %116 = icmp eq i32 %115, 1
  br i1 %116, label %117, label %119

117:                                              ; preds = %114
  %118 = call i32 (i8*, ...) @printf(i8* getelementptr inbounds ([3 x i8], [3 x i8]* @.str.1, i64 0, i64 0))
  br label %121

119:                                              ; preds = %114
  %120 = call i32 (i8*, ...) @printf(i8* getelementptr inbounds ([3 x i8], [3 x i8]* @.str.2, i64 0, i64 0))
  br label %121

121:                                              ; preds = %119, %117
  br label %122

122:                                              ; preds = %121
  %123 = load i32, i32* %4, align 4
  %124 = add nsw i32 %123, 1
  store i32 %124, i32* %4, align 4
  br label %10

125:                                              ; preds = %10
  ret i32 0
}

declare dso_local i32 @__isoc99_scanf(i8*, ...) #1

declare dso_local i32 @getchar() #1

declare dso_local i32 @gets(...) #1

; Function Attrs: nounwind readonly
declare dso_local i64 @strlen(i8*) #2

declare dso_local i32 @printf(i8*, ...) #1


!llvm.module.flags = !{!0}
!llvm.ident = !{!1}

!0 = !{i32 1, !"wchar_size", i32 4}
!1 = !{!"clang version 10.0.0-4ubuntu1 "}
