; ModuleID = 'source-C-CXX/57/1160.c'
source_filename = "source-C-CXX/57/1160.c"
target datalayout = "e-m:e-p270:32:32-p271:32:32-p272:64:64-i64:64-f80:128-n8:16:32:64-S128"
target triple = "x86_64-pc-linux-gnu"

%struct._IO_FILE = type { i32, i8*, i8*, i8*, i8*, i8*, i8*, i8*, i8*, i8*, i8*, i8*, %struct._IO_marker*, %struct._IO_FILE*, i32, i32, i64, i16, i8, [1 x i8], i8*, i64, %struct._IO_codecvt*, %struct._IO_wide_data*, %struct._IO_FILE*, i8*, i64, i32, [20 x i8] }
%struct._IO_marker = type opaque
%struct._IO_codecvt = type opaque
%struct._IO_wide_data = type opaque

@.str = private unnamed_addr constant [3 x i8] c"%d\00", align 1
@stdin = external local_unnamed_addr global %struct._IO_FILE*, align 8
@str = private unnamed_addr constant [2 x i8] c"0\00", align 1
@str.3 = private unnamed_addr constant [2 x i8] c"1\00", align 1

; Function Attrs: nounwind sspstrong uwtable
define dso_local i32 @main() local_unnamed_addr #0 {
  %1 = alloca i32, align 4
  %2 = alloca [100 x i8], align 16
  %3 = bitcast i32* %1 to i8*
  call void @llvm.lifetime.start.p0i8(i64 4, i8* nonnull %3) #6
  %4 = getelementptr inbounds [100 x i8], [100 x i8]* %2, i64 0, i64 0
  call void @llvm.lifetime.start.p0i8(i64 100, i8* nonnull %4) #6
  %5 = call i32 (i8*, ...) @__isoc99_scanf(i8* getelementptr inbounds ([3 x i8], [3 x i8]* @.str, i64 0, i64 0), i32* nonnull %1)
  %6 = load %struct._IO_FILE*, %struct._IO_FILE** @stdin, align 8, !tbaa !5
  %7 = call i32 @getc(%struct._IO_FILE* %6) #6
  %8 = load i32, i32* %1, align 4, !tbaa !9
  %9 = icmp sgt i32 %8, 0
  br i1 %9, label %10, label %55

10:                                               ; preds = %0, %49
  %11 = phi i32 [ %52, %49 ], [ 0, %0 ]
  %12 = call i32 (i8*, ...) bitcast (i32 (...)* @gets to i32 (i8*, ...)*)(i8* nonnull %4) #6
  %13 = call i64 @strlen(i8* noundef nonnull %4) #7
  %14 = trunc i64 %13 to i32
  %15 = load i8, i8* %4, align 16, !tbaa !11
  %16 = add i8 %15, -65
  %17 = icmp ult i8 %16, 26
  br i1 %17, label %24, label %18

18:                                               ; preds = %10
  %19 = add i8 %15, -97
  %20 = icmp ult i8 %19, 26
  %21 = icmp eq i8 %15, 95
  %22 = or i1 %21, %20
  %23 = zext i1 %22 to i32
  br label %24

24:                                               ; preds = %18, %10
  %25 = phi i32 [ 1, %10 ], [ %23, %18 ]
  %26 = icmp sgt i32 %14, 1
  br i1 %26, label %27, label %46

27:                                               ; preds = %24
  %28 = and i64 %13, 4294967295
  br label %29

29:                                               ; preds = %27, %43
  %30 = phi i64 [ 1, %27 ], [ %44, %43 ]
  %31 = getelementptr inbounds [100 x i8], [100 x i8]* %2, i64 0, i64 %30
  %32 = load i8, i8* %31, align 1, !tbaa !11
  %33 = add i8 %32, -65
  %34 = icmp ult i8 %33, 26
  br i1 %34, label %43, label %35

35:                                               ; preds = %29
  %36 = add i8 %32, -97
  %37 = icmp ult i8 %36, 26
  %38 = icmp eq i8 %32, 95
  %39 = or i1 %38, %37
  %40 = add i8 %32, -48
  %41 = icmp ult i8 %40, 10
  %42 = or i1 %41, %39
  br i1 %42, label %43, label %48

43:                                               ; preds = %35, %29
  %44 = add nuw nsw i64 %30, 1
  %45 = icmp eq i64 %44, %28
  br i1 %45, label %46, label %29, !llvm.loop !12

46:                                               ; preds = %43, %24
  %47 = icmp eq i32 %25, 1
  br i1 %47, label %49, label %48

48:                                               ; preds = %35, %46
  br label %49

49:                                               ; preds = %46, %48
  %50 = phi i8* [ getelementptr inbounds ([2 x i8], [2 x i8]* @str, i64 0, i64 0), %48 ], [ getelementptr inbounds ([2 x i8], [2 x i8]* @str.3, i64 0, i64 0), %46 ]
  %51 = call i32 @puts(i8* nonnull dereferenceable(1) %50)
  %52 = add nuw nsw i32 %11, 1
  %53 = load i32, i32* %1, align 4, !tbaa !9
  %54 = icmp slt i32 %52, %53
  br i1 %54, label %10, label %55, !llvm.loop !14

55:                                               ; preds = %49, %0
  call void @llvm.lifetime.end.p0i8(i64 100, i8* nonnull %4) #6
  call void @llvm.lifetime.end.p0i8(i64 4, i8* nonnull %3) #6
  ret i32 0
}

; Function Attrs: argmemonly mustprogress nofree nosync nounwind willreturn
declare void @llvm.lifetime.start.p0i8(i64 immarg, i8* nocapture) #1

; Function Attrs: nofree nounwind
declare noundef i32 @__isoc99_scanf(i8* nocapture noundef readonly, ...) local_unnamed_addr #2

declare i32 @gets(...) local_unnamed_addr #3

; Function Attrs: argmemonly mustprogress nofree nounwind readonly willreturn
declare i64 @strlen(i8* nocapture) local_unnamed_addr #4

; Function Attrs: argmemonly mustprogress nofree nosync nounwind willreturn
declare void @llvm.lifetime.end.p0i8(i64 immarg, i8* nocapture) #1

; Function Attrs: nofree nounwind
declare noundef i32 @getc(%struct._IO_FILE* nocapture noundef) local_unnamed_addr #2

; Function Attrs: nofree nounwind
declare noundef i32 @puts(i8* nocapture noundef readonly) local_unnamed_addr #5


!llvm.module.flags = !{!0, !1, !2, !3}
!llvm.ident = !{!4}

!0 = !{i32 1, !"wchar_size", i32 4}
!1 = !{i32 7, !"PIC Level", i32 2}
!2 = !{i32 7, !"PIE Level", i32 2}
!3 = !{i32 7, !"uwtable", i32 1}
!4 = !{!"clang version 13.0.0"}
!5 = !{!6, !6, i64 0}
!6 = !{!"any pointer", !7, i64 0}
!7 = !{!"omnipotent char", !8, i64 0}
!8 = !{!"Simple C/C++ TBAA"}
!9 = !{!10, !10, i64 0}
!10 = !{!"int", !7, i64 0}
!11 = !{!7, !7, i64 0}
!12 = distinct !{!12, !13}
!13 = !{!"llvm.loop.mustprogress"}
!14 = distinct !{!14, !13}
